(lp0
c__builtin__
set
p1
((lp2
S'Porto'
p3
aS'Granada'
p4
aS'Sevilha'
p5
aS'Aveiro'
p6
aS'Madrid'
p7
aS'Portimao'
p8
aS'Badajoz'
p9
aS'Barcelona'
p10
aS'Gijon'
p11
aS'Andorra'
p12
aS'Palma'
p13
aS'Bilbau'
p14
aS'Vigo'
p15
aS'Lisboa'
p16
aS'Valencia'
p17
aS'Vilar.Formoso'
p18
aS'Corunha'
p19
aS'Braganca'
p20
atp21
Rp22
ag1
((lp23
(g11
g14
tp24
a(g4
g5
tp25
a(g9
g16
tp26
a(g6
g3
tp27
a(g9
g18
tp28
a(g3
g20
tp29
a(g20
g11
tp30
a(g13
g17
tp31
a(g10
g12
tp32
a(g14
g7
tp33
a(g10
g17
tp34
a(g8
g5
tp35
a(g7
g18
tp36
a(g4
g17
tp37
a(g15
g19
tp38
a(g6
g16
tp39
a(g9
g17
tp40
a(g20
g18
tp41
a(g6
g18
tp42
a(g8
g16
tp43
a(g4
g13
tp44
a(g14
g12
tp45
a(g3
g15
tp46
a(g7
g10
tp47
a(g20
g14
tp48
a(g7
g17
tp49
a(g19
g11
tp50
a(g10
g13
tp51
a(g9
g5
tp52
atp53
Rp54
a(dp55
g17
(F-0.3762881
F39.4699075
tp56
sg3
(F-8.629105299999999
F41.1579438
tp57
sg4
(F-3.5985571
F37.1773363
tp58
sg5
(F-5.9844589
F37.3890924
tp59
sg7
(F-3.7037902
F40.4167754
tp60
sg8
(F-8.5376926
F37.13617
tp61
sg9
(F-6.9706535
F38.8794495
tp62
sg10
(F2.1734035
F41.3850639
tp63
sg12
(F1.521801
F42.506285
tp64
sg11
(F-5.6611195
F43.5322015
tp65
sg14
(F-2.9475662
F43.262629
tp66
sg15
(F-8.7207268
F42.24059889999999
tp67
sg16
(F-9.1393366
F38.7222524
tp68
sg13
(F2.6501603
F39.5696005
tp69
sg18
(F-6.837111999999999
F40.6148457
tp70
sg6
(F-8.6537539
F40.6405055
tp71
sg19
(F-8.4115401
F43.3623436
tp72
sg20
(F-6.756737999999999
F41.8061131
tp73
sa(dp74
g17
(dp75
g3
I1549
sg4
I1474
sg5
I1485
sg7
I1544
sg8
I1563
sg9
I1524
sg10
I1566
sg12
I1508
sg11
I1602
sg14
I1589
sg15
I1584
sg16
I1533
sg13
I1563
sg18
I1507
sg6
I1555
sg19
I1524
sg20
I1558
ssg3
(dp76
g17
I1562
sg4
I1552
sg8
I1538
sg7
I1549
sg5
I1551
sg9
I1593
sg10
I1531
sg12
I1551
sg13
I1557
sg14
I1459
sg15
I1524
sg16
I1596
sg11
I1515
sg18
I1517
sg6
I1576
sg19
I1542
sg20
I1530
ssg4
(dp77
g17
I1526
sg3
I1570
sg8
I1491
sg7
I1529
sg5
I1629
sg9
I1530
sg10
I1635
sg12
I1533
sg13
I1523
sg14
I1496
sg15
I1505
sg16
I1599
sg11
I1476
sg18
I1544
sg6
I1594
sg19
I1581
sg20
I1498
ssg5
(dp78
g17
I1563
sg3
I1552
sg4
I1576
sg8
I1562
sg7
I1459
sg19
I1626
sg9
I1539
sg10
I1556
sg12
I1494
sg13
I1475
sg14
I1573
sg15
I1550
sg16
I1568
sg11
I1495
sg18
I1591
sg6
I1576
sg20
I1573
ssg7
(dp79
g17
I1505
sg3
I1558
sg4
I1595
sg8
I1548
sg18
I1575
sg5
I1626
sg9
I1536
sg10
I1590
sg12
I1488
sg13
I1636
sg14
I1573
sg15
I1509
sg16
I1525
sg11
I1518
sg6
I1554
sg19
I1555
sg20
I1532
ssg8
(dp80
g17
I1557
sg3
I1545
sg4
I1534
sg5
I1506
sg7
I1554
sg19
I1554
sg9
I1533
sg10
I1492
sg12
I1537
sg13
I1558
sg14
I1546
sg15
I1579
sg16
I1547
sg11
I1478
sg18
I1610
sg6
I1593
sg20
I1574
ssg9
(dp81
g17
I1555
sg3
I1616
sg4
I1587
sg5
I1548
sg7
I1475
sg8
I1449
sg19
I1594
sg10
I1510
sg12
I1505
sg13
I1560
sg14
I1488
sg15
I1470
sg16
I1523
sg11
I1549
sg18
I1519
sg6
I1611
sg20
I1541
ssg10
(dp82
g17
I1548
sg3
I1595
sg4
I1560
sg5
I1561
sg7
I1624
sg8
I1518
sg9
I1533
sg12
I1558
sg13
I1588
sg14
I1549
sg15
I1610
sg16
I1470
sg11
I1511
sg18
I1526
sg6
I1563
sg19
I1563
sg20
I1552
ssg12
(dp83
g17
I1484
sg3
I1592
sg4
I1586
sg5
I1479
sg7
I1527
sg8
I1537
sg9
I1557
sg10
I1551
sg19
I1505
sg13
I1553
sg14
I1595
sg15
I1547
sg16
I1620
sg11
I1550
sg18
I1500
sg6
I1564
sg20
I1589
ssg11
(dp84
g3
I1549
sg4
I1605
sg5
I1563
sg7
I1582
sg8
I1588
sg9
I1517
sg10
I1549
sg12
I1556
sg13
I1506
sg14
I1519
sg17
I1582
sg16
I1601
sg15
I1631
sg18
I1591
sg6
I1513
sg19
I1514
sg20
I1530
ssg14
(dp85
g17
I1580
sg3
I1453
sg4
I1604
sg5
I1546
sg7
I1572
sg8
I1509
sg9
I1562
sg10
I1503
sg12
I1538
sg11
I1502
sg20
I1507
sg15
I1404
sg16
I1555
sg13
I1548
sg18
I1485
sg6
I1503
sg19
I1539
ssg15
(dp86
g3
I1536
sg4
I1491
sg5
I1568
sg7
I1594
sg8
I1550
sg9
I1579
sg10
I1512
sg12
I1569
sg11
I1540
sg14
I1497
sg17
I1556
sg16
I1489
sg13
I1548
sg18
I1530
sg6
I1613
sg19
I1577
sg20
I1537
ssg16
(dp87
g17
I1547
sg3
I1603
sg4
I1501
sg5
I1528
sg7
I1530
sg8
I1509
sg9
I1518
sg10
I1505
sg12
I1549
sg11
I1492
sg14
I1555
sg15
I1518
sg13
I1518
sg18
I1561
sg6
I1577
sg19
I1572
sg20
I1506
ssg13
(dp88
g3
I1534
sg4
I1552
sg5
I1603
sg7
I1615
sg8
I1531
sg9
I1470
sg10
I1555
sg12
I1532
sg11
I1568
sg14
I1645
sg17
I1542
sg16
I1505
sg15
I1562
sg18
I1457
sg6
I1516
sg19
I1576
sg20
I1614
ssg18
(dp89
g17
I1588
sg3
I1509
sg4
I1529
sg5
I1518
sg7
I1575
sg8
I1577
sg9
I1538
sg10
I1559
sg12
I1510
sg11
I1530
sg14
I1526
sg15
I1522
sg16
I1617
sg13
I1510
sg6
I1560
sg19
I1512
sg20
I1537
ssg6
(dp90
g17
I1556
sg3
I1568
sg4
I1521
sg8
I1523
sg7
I1542
sg5
I1488
sg9
I1486
sg10
I1568
sg12
I1583
sg13
I1497
sg14
I1511
sg15
I1511
sg16
I1585
sg11
I1538
sg18
I1470
sg19
I1544
sg20
I1539
ssg19
(dp91
g17
I1523
sg3
I1589
sg4
I1609
sg5
I1576
sg7
I1606
sg8
I1616
sg9
I1565
sg10
I1560
sg12
I1546
sg11
I1516
sg14
I1624
sg15
I1610
sg16
I1546
sg13
I1585
sg18
I1554
sg6
I1559
sg20
I1496
ssg20
(dp92
g17
I1559
sg3
I1524
sg4
I1535
sg5
I1497
sg7
I1474
sg8
I1528
sg9
I1571
sg10
I1618
sg12
I1544
sg11
I1552
sg14
I1570
sg15
I1539
sg16
I1531
sg13
I1520
sg18
I1612
sg6
I1584
sg19
I1537
ssa.